; Function Attrs: nounwind sspstrong uwtable
define internal noundef i64 @ossl_x509store_set_default_paths(i64 noundef %0) #0 {
  %2 = tail call ptr @rb_check_typeddata(i64 noundef %0, ptr noundef nonnull @ossl_x509store_type) #5
  %.not = icmp eq ptr %2, null
  br i1 %.not, label %3, label %5

3:                                                ; preds = %1
  %4 = load i64, ptr @rb_eRuntimeError, align 8, !tbaa !20
  tail call void (i64, ptr, ...) @ossl_raise(i64 noundef %4, ptr noundef nonnull @.str.2) #7
  unreachable

5:                                                ; preds = %1
  %6 = tail call i32 @X509_STORE_set_default_paths(ptr noundef nonnull %2) #5
  %.not2 = icmp eq i32 %6, 1
  br i1 %.not2, label %9, label %7

7:                                                ; preds = %5
  %8 = load i64, ptr @eX509StoreError, align 8, !tbaa !20
  tail call void (i64, ptr, ...) @ossl_raise(i64 noundef %8, ptr noundef nonnull @.str.44) #7
  unreachable

9:                                                ; preds = %5
  ret i64 4
}